target datalayout = "e-m:e-p270:32:32-p271:32:32-p272:64:64-i64:64-i128:128-f80:128-n8:16:32:64-S128"
target triple = "x86_64-pc-linux-gnu"

%struct.strvec = type { ptr, i64, i64 }
%struct.replay_opts = type { i32, i32, i32, i32, i32, i32, i32, i32, i32, i32, i32, i32, i32, i32, i32, i32, i32, i32, ptr, i32, i32, ptr, ptr, %struct.strvec, ptr, %struct.object_id, i32, ptr, ptr }
%struct.object_id = type { [32 x i8], i32 }

@.str.10 = private unnamed_addr constant [9 x i8] c"verbatim\00", align 1
@.str.11 = private unnamed_addr constant [11 x i8] c"whitespace\00", align 1
@.str.12 = private unnamed_addr constant [6 x i8] c"strip\00", align 1
@.str.13 = private unnamed_addr constant [9 x i8] c"scissors\00", align 1
@.str.46 = private unnamed_addr constant [1 x i8] zeroinitializer, align 1
@.str.108 = private unnamed_addr constant [15 x i8] c"commit.cleanup\00", align 1
@.str.109 = private unnamed_addr constant [41 x i8] c"invalid commit message cleanup mode '%s'\00", align 1
@.str.110 = private unnamed_addr constant [15 x i8] c"commit.gpgsign\00", align 1
@.str.111 = private unnamed_addr constant [13 x i8] c"pull.twohead\00", align 1
@.str.112 = private unnamed_addr constant [17 x i8] c"revert.reference\00", align 1
@git_gettext_enabled = external global i32, align 4

; Function Attrs: inlinehint nounwind uwtable
define internal ptr @_(ptr noundef %0) #1 {
  %2 = alloca ptr, align 8
  %3 = alloca ptr, align 8
  store ptr %0, ptr %3, align 8, !tbaa !4
  %4 = load ptr, ptr %3, align 8, !tbaa !4
  %5 = load i8, ptr %4, align 1, !tbaa !30
  %6 = icmp ne i8 %5, 0
  br i1 %6, label %8, label %7

7:                                                ; preds = %1
  store ptr @.str.46, ptr %2, align 8
  br label %16

8:                                                ; preds = %1
  %9 = load i32, ptr @git_gettext_enabled, align 4, !tbaa !29
  %10 = icmp ne i32 %9, 0
  br i1 %10, label %13, label %11

11:                                               ; preds = %8
  %12 = load ptr, ptr %3, align 8, !tbaa !4
  store ptr %12, ptr %2, align 8
  br label %16

13:                                               ; preds = %8
  %14 = load ptr, ptr %3, align 8, !tbaa !4
  %15 = call ptr @dcgettext(ptr noundef null, ptr noundef %14, i32 noundef 5) #11
  store ptr %15, ptr %2, align 8
  br label %16

16:                                               ; preds = %13, %11, %7
  %17 = load ptr, ptr %2, align 8
  ret ptr %17
}

; Function Attrs: inlinehint nounwind uwtable
define internal i32 @const_error() #1 {
  ret i32 -1
}

; Function Attrs: nounwind uwtable
define internal i32 @git_sequencer_config(ptr noundef %0, ptr noundef %1, ptr noundef %2, ptr noundef %3) #0 {
  %5 = alloca i32, align 4
  %6 = alloca ptr, align 8
  %7 = alloca ptr, align 8
  %8 = alloca ptr, align 8
  %9 = alloca ptr, align 8
  %10 = alloca ptr, align 8
  %11 = alloca i32, align 4
  %12 = alloca i32, align 4
  %13 = alloca ptr, align 8
  store ptr %0, ptr %6, align 8, !tbaa !4
  store ptr %1, ptr %7, align 8, !tbaa !4
  store ptr %2, ptr %8, align 8, !tbaa !24
  store ptr %3, ptr %9, align 8, !tbaa !23
  call void @llvm.lifetime.start.p0(i64 8, ptr %10) #11
  %14 = load ptr, ptr %9, align 8, !tbaa !23
  store ptr %14, ptr %10, align 8, !tbaa !13
  %15 = load ptr, ptr %6, align 8, !tbaa !4
  %16 = call i32 @strcmp(ptr noundef %15, ptr noundef @.str.108) #12
  %17 = icmp ne i32 %16, 0
  br i1 %17, label %68, label %18

18:                                               ; preds = %4
  %19 = load ptr, ptr %7, align 8, !tbaa !4
  %20 = icmp ne ptr %19, null
  br i1 %20, label %25, label %21

21:                                               ; preds = %18
  %22 = load ptr, ptr %6, align 8, !tbaa !4
  %23 = call i32 @config_error_nonbool(ptr noundef %22)
  %24 = call i32 @const_error()
  store i32 %24, ptr %5, align 4
  store i32 1, ptr %11, align 4
  br label %136

25:                                               ; preds = %18
  %26 = load ptr, ptr %7, align 8, !tbaa !4
  %27 = call i32 @strcmp(ptr noundef %26, ptr noundef @.str.10) #12
  %28 = icmp ne i32 %27, 0
  br i1 %28, label %34, label %29

29:                                               ; preds = %25
  %30 = load ptr, ptr %10, align 8, !tbaa !13
  %31 = getelementptr inbounds nuw %struct.replay_opts, ptr %30, i32 0, i32 19
  store i32 1, ptr %31, align 8, !tbaa !15
  %32 = load ptr, ptr %10, align 8, !tbaa !13
  %33 = getelementptr inbounds nuw %struct.replay_opts, ptr %32, i32 0, i32 20
  store i32 1, ptr %33, align 4, !tbaa !26
  br label %67

34:                                               ; preds = %25
  %35 = load ptr, ptr %7, align 8, !tbaa !4
  %36 = call i32 @strcmp(ptr noundef %35, ptr noundef @.str.11) #12
  %37 = icmp ne i32 %36, 0
  br i1 %37, label %43, label %38

38:                                               ; preds = %34
  %39 = load ptr, ptr %10, align 8, !tbaa !13
  %40 = getelementptr inbounds nuw %struct.replay_opts, ptr %39, i32 0, i32 19
  store i32 0, ptr %40, align 8, !tbaa !15
  %41 = load ptr, ptr %10, align 8, !tbaa !13
  %42 = getelementptr inbounds nuw %struct.replay_opts, ptr %41, i32 0, i32 20
  store i32 1, ptr %42, align 4, !tbaa !26
  br label %66

43:                                               ; preds = %34
  %44 = load ptr, ptr %7, align 8, !tbaa !4
  %45 = call i32 @strcmp(ptr noundef %44, ptr noundef @.str.12) #12
  %46 = icmp ne i32 %45, 0
  br i1 %46, label %52, label %47

47:                                               ; preds = %43
  %48 = load ptr, ptr %10, align 8, !tbaa !13
  %49 = getelementptr inbounds nuw %struct.replay_opts, ptr %48, i32 0, i32 19
  store i32 3, ptr %49, align 8, !tbaa !15
  %50 = load ptr, ptr %10, align 8, !tbaa !13
  %51 = getelementptr inbounds nuw %struct.replay_opts, ptr %50, i32 0, i32 20
  store i32 1, ptr %51, align 4, !tbaa !26
  br label %65

52:                                               ; preds = %43
  %53 = load ptr, ptr %7, align 8, !tbaa !4
  %54 = call i32 @strcmp(ptr noundef %53, ptr noundef @.str.13) #12
  %55 = icmp ne i32 %54, 0
  br i1 %55, label %61, label %56

56:                                               ; preds = %52
  %57 = load ptr, ptr %10, align 8, !tbaa !13
  %58 = getelementptr inbounds nuw %struct.replay_opts, ptr %57, i32 0, i32 19
  store i32 2, ptr %58, align 8, !tbaa !15
  %59 = load ptr, ptr %10, align 8, !tbaa !13
  %60 = getelementptr inbounds nuw %struct.replay_opts, ptr %59, i32 0, i32 20
  store i32 1, ptr %60, align 4, !tbaa !26
  br label %64

61:                                               ; preds = %52
  %62 = call ptr @_(ptr noundef @.str.109)
  %63 = load ptr, ptr %7, align 8, !tbaa !4
  call void (ptr, ...) @warning(ptr noundef %62, ptr noundef %63)
  br label %64

64:                                               ; preds = %61, %56
  br label %65

65:                                               ; preds = %64, %47
  br label %66

66:                                               ; preds = %65, %38
  br label %67

67:                                               ; preds = %66, %29
  store i32 0, ptr %5, align 4
  store i32 1, ptr %11, align 4
  br label %136

68:                                               ; preds = %4
  %69 = load ptr, ptr %6, align 8, !tbaa !4
  %70 = call i32 @strcmp(ptr noundef %69, ptr noundef @.str.110) #12
  %71 = icmp ne i32 %70, 0
  br i1 %71, label %87, label %72

72:                                               ; preds = %68
  %73 = load ptr, ptr %10, align 8, !tbaa !13
  %74 = getelementptr inbounds nuw %struct.replay_opts, ptr %73, i32 0, i32 18
  %75 = load ptr, ptr %74, align 8, !tbaa !27
  call void @free(ptr noundef %75) #11
  %76 = load ptr, ptr %6, align 8, !tbaa !4
  %77 = load ptr, ptr %7, align 8, !tbaa !4
  %78 = call i32 @git_config_bool(ptr noundef %76, ptr noundef %77)
  %79 = icmp ne i32 %78, 0
  br i1 %79, label %80, label %82

80:                                               ; preds = %72
  %81 = call ptr @xstrdup(ptr noundef @.str.46)
  br label %83

82:                                               ; preds = %72
  br label %83

83:                                               ; preds = %82, %80
  %84 = phi ptr [ %81, %80 ], [ null, %82 ]
  %85 = load ptr, ptr %10, align 8, !tbaa !13
  %86 = getelementptr inbounds nuw %struct.replay_opts, ptr %85, i32 0, i32 18
  store ptr %84, ptr %86, align 8, !tbaa !27
  store i32 0, ptr %5, align 4
  store i32 1, ptr %11, align 4
  br label %136

87:                                               ; preds = %68
  %88 = load ptr, ptr %10, align 8, !tbaa !13
  %89 = getelementptr inbounds nuw %struct.replay_opts, ptr %88, i32 0, i32 21
  %90 = load ptr, ptr %89, align 8, !tbaa !28
  %91 = icmp ne ptr %90, null
  br i1 %91, label %116, label %92

92:                                               ; preds = %87
  %93 = load ptr, ptr %6, align 8, !tbaa !4
  %94 = call i32 @strcmp(ptr noundef %93, ptr noundef @.str.111) #12
  %95 = icmp ne i32 %94, 0
  br i1 %95, label %116, label %96

96:                                               ; preds = %92
  call void @llvm.lifetime.start.p0(i64 4, ptr %12) #11
  %97 = load ptr, ptr %10, align 8, !tbaa !13
  %98 = getelementptr inbounds nuw %struct.replay_opts, ptr %97, i32 0, i32 21
  %99 = load ptr, ptr %6, align 8, !tbaa !4
  %100 = load ptr, ptr %7, align 8, !tbaa !4
  %101 = call i32 @git_config_string(ptr noundef %98, ptr noundef %99, ptr noundef %100)
  store i32 %101, ptr %12, align 4, !tbaa !29
  %102 = load i32, ptr %12, align 4, !tbaa !29
  %103 = icmp eq i32 %102, 0
  br i1 %103, label %104, label %114

104:                                              ; preds = %96
  call void @llvm.lifetime.start.p0(i64 8, ptr %13) #11
  %105 = load ptr, ptr %10, align 8, !tbaa !13
  %106 = getelementptr inbounds nuw %struct.replay_opts, ptr %105, i32 0, i32 21
  %107 = load ptr, ptr %106, align 8, !tbaa !28
  %108 = call ptr @strchr(ptr noundef %107, i32 noundef 32) #12
  store ptr %108, ptr %13, align 8, !tbaa !4
  %109 = load ptr, ptr %13, align 8, !tbaa !4
  %110 = icmp ne ptr %109, null
  br i1 %110, label %111, label %113

111:                                              ; preds = %104
  %112 = load ptr, ptr %13, align 8, !tbaa !4
  store i8 0, ptr %112, align 1, !tbaa !30
  br label %113

113:                                              ; preds = %111, %104
  call void @llvm.lifetime.end.p0(i64 8, ptr %13) #11
  br label %114

114:                                              ; preds = %113, %96
  %115 = load i32, ptr %12, align 4, !tbaa !29
  store i32 %115, ptr %5, align 4
  store i32 1, ptr %11, align 4
  call void @llvm.lifetime.end.p0(i64 4, ptr %12) #11
  br label %136

116:                                              ; preds = %92, %87
  %117 = load ptr, ptr %10, align 8, !tbaa !13
  %118 = getelementptr inbounds nuw %struct.replay_opts, ptr %117, i32 0, i32 0
  %119 = load i32, ptr %118, align 8, !tbaa !31
  %120 = icmp eq i32 %119, 0
  br i1 %120, label %121, label %131

121:                                              ; preds = %116
  %122 = load ptr, ptr %6, align 8, !tbaa !4
  %123 = call i32 @strcmp(ptr noundef %122, ptr noundef @.str.112) #12
  %124 = icmp ne i32 %123, 0
  br i1 %124, label %131, label %125

125:                                              ; preds = %121
  %126 = load ptr, ptr %6, align 8, !tbaa !4
  %127 = load ptr, ptr %7, align 8, !tbaa !4
  %128 = call i32 @git_config_bool(ptr noundef %126, ptr noundef %127)
  %129 = load ptr, ptr %10, align 8, !tbaa !13
  %130 = getelementptr inbounds nuw %struct.replay_opts, ptr %129, i32 0, i32 16
  store i32 %128, ptr %130, align 8, !tbaa !32
  br label %131

131:                                              ; preds = %125, %121, %116
  %132 = load ptr, ptr %6, align 8, !tbaa !4
  %133 = load ptr, ptr %7, align 8, !tbaa !4
  %134 = load ptr, ptr %8, align 8, !tbaa !24
  %135 = call i32 @git_diff_basic_config(ptr noundef %132, ptr noundef %133, ptr noundef %134, ptr noundef null)
  store i32 %135, ptr %5, align 4
  store i32 1, ptr %11, align 4
  br label %136

136:                                              ; preds = %131, %114, %83, %67, %21
  call void @llvm.lifetime.end.p0(i64 8, ptr %10) #11
  %137 = load i32, ptr %5, align 4
  ret i32 %137
}