; Function Attrs: nounwind uwtable
define internal i32 @git_sequencer_config(ptr noundef %0, ptr noundef %1, ptr noundef %2, ptr noundef %3) #0 {
  %5 = tail call i32 @strcmp(ptr noundef nonnull dereferenceable(1) %0, ptr noundef nonnull dereferenceable(15) @.str.108) #21
  %.not = icmp eq i32 %5, 0
  br i1 %.not, label %6, label %33

6:                                                ; preds = %4
  %.not42 = icmp eq ptr %1, null
  br i1 %.not42, label %7, label %9

7:                                                ; preds = %6
  %8 = tail call i32 @config_error_nonbool(ptr noundef nonnull %0) #20
  br label %65

9:                                                ; preds = %6
  %10 = tail call i32 @strcmp(ptr noundef nonnull dereferenceable(1) %1, ptr noundef nonnull dereferenceable(9) @.str.10) #21
  %.not43 = icmp eq i32 %10, 0
  br i1 %.not43, label %11, label %14

11:                                               ; preds = %9
  %12 = getelementptr inbounds nuw i8, ptr %3, i64 80
  store i32 1, ptr %12, align 8, !tbaa !11
  %13 = getelementptr inbounds nuw i8, ptr %3, i64 84
  store i32 1, ptr %13, align 4, !tbaa !20
  br label %65

14:                                               ; preds = %9
  %15 = tail call i32 @strcmp(ptr noundef nonnull dereferenceable(1) %1, ptr noundef nonnull dereferenceable(11) @.str.11) #21
  %.not44 = icmp eq i32 %15, 0
  br i1 %.not44, label %16, label %19

16:                                               ; preds = %14
  %17 = getelementptr inbounds nuw i8, ptr %3, i64 80
  store i32 0, ptr %17, align 8, !tbaa !11
  %18 = getelementptr inbounds nuw i8, ptr %3, i64 84
  store i32 1, ptr %18, align 4, !tbaa !20
  br label %65

19:                                               ; preds = %14
  %20 = tail call i32 @strcmp(ptr noundef nonnull dereferenceable(1) %1, ptr noundef nonnull dereferenceable(6) @.str.12) #21
  %.not45 = icmp eq i32 %20, 0
  br i1 %.not45, label %21, label %24

21:                                               ; preds = %19
  %22 = getelementptr inbounds nuw i8, ptr %3, i64 80
  store i32 3, ptr %22, align 8, !tbaa !11
  %23 = getelementptr inbounds nuw i8, ptr %3, i64 84
  store i32 1, ptr %23, align 4, !tbaa !20
  br label %65

24:                                               ; preds = %19
  %25 = tail call i32 @strcmp(ptr noundef nonnull dereferenceable(1) %1, ptr noundef nonnull dereferenceable(9) @.str.13) #21
  %.not46 = icmp eq i32 %25, 0
  br i1 %.not46, label %26, label %29

26:                                               ; preds = %24
  %27 = getelementptr inbounds nuw i8, ptr %3, i64 80
  store i32 2, ptr %27, align 8, !tbaa !11
  %28 = getelementptr inbounds nuw i8, ptr %3, i64 84
  store i32 1, ptr %28, align 4, !tbaa !20
  br label %65

29:                                               ; preds = %24
  %30 = load i32, ptr @git_gettext_enabled, align 4, !tbaa !21
  %.not4.i = icmp eq i32 %30, 0
  br i1 %.not4.i, label %_.exit, label %31

31:                                               ; preds = %29
  %32 = tail call ptr @dcgettext(ptr noundef null, ptr noundef nonnull @.str.109, i32 noundef 5) #20
  br label %_.exit

_.exit:                                           ; preds = %29, %31
  %.0.i = phi ptr [ %32, %31 ], [ @.str.109, %29 ]
  tail call void (ptr, ...) @warning(ptr noundef %.0.i, ptr noundef nonnull %1) #20
  br label %65

33:                                               ; preds = %4
  %34 = tail call i32 @strcmp(ptr noundef nonnull dereferenceable(1) %0, ptr noundef nonnull dereferenceable(15) @.str.110) #21
  %.not47 = icmp eq i32 %34, 0
  br i1 %.not47, label %35, label %43

35:                                               ; preds = %33
  %36 = getelementptr inbounds nuw i8, ptr %3, i64 72
  %37 = load ptr, ptr %36, align 8, !tbaa !22
  tail call void @free(ptr noundef %37) #20
  %38 = tail call i32 @git_config_bool(ptr noundef nonnull %0, ptr noundef %1) #20
  %.not48 = icmp eq i32 %38, 0
  br i1 %.not48, label %41, label %39

39:                                               ; preds = %35
  %40 = tail call ptr @xstrdup(ptr noundef nonnull @.str.46) #20
  br label %41

41:                                               ; preds = %35, %39
  %42 = phi ptr [ %40, %39 ], [ null, %35 ]
  store ptr %42, ptr %36, align 8, !tbaa !22
  br label %65

43:                                               ; preds = %33
  %44 = getelementptr inbounds nuw i8, ptr %3, i64 88
  %45 = load ptr, ptr %44, align 8, !tbaa !23
  %.not49 = icmp eq ptr %45, null
  br i1 %.not49, label %46, label %55

46:                                               ; preds = %43
  %47 = tail call i32 @strcmp(ptr noundef nonnull dereferenceable(1) %0, ptr noundef nonnull dereferenceable(13) @.str.111) #21
  %.not50 = icmp eq i32 %47, 0
  br i1 %.not50, label %48, label %55

48:                                               ; preds = %46
  %49 = tail call i32 @git_config_string(ptr noundef nonnull %44, ptr noundef nonnull %0, ptr noundef %1) #20
  %50 = icmp eq i32 %49, 0
  br i1 %50, label %51, label %65

51:                                               ; preds = %48
  %52 = load ptr, ptr %44, align 8, !tbaa !23
  %53 = tail call ptr @strchr(ptr noundef nonnull dereferenceable(1) %52, i32 noundef 32) #21
  %.not51 = icmp eq ptr %53, null
  br i1 %.not51, label %65, label %54

54:                                               ; preds = %51
  store i8 0, ptr %53, align 1, !tbaa !24
  br label %65

55:                                               ; preds = %46, %43
  %56 = load i32, ptr %3, align 8, !tbaa !25
  %57 = icmp eq i32 %56, 0
  br i1 %57, label %58, label %63

58:                                               ; preds = %55
  %59 = tail call i32 @strcmp(ptr noundef nonnull dereferenceable(1) %0, ptr noundef nonnull dereferenceable(17) @.str.112) #21
  %.not52 = icmp eq i32 %59, 0
  br i1 %.not52, label %60, label %63

60:                                               ; preds = %58
  %61 = tail call i32 @git_config_bool(ptr noundef nonnull %0, ptr noundef %1) #20
  %62 = getelementptr inbounds nuw i8, ptr %3, i64 64
  store i32 %61, ptr %62, align 8, !tbaa !26
  br label %63

63:                                               ; preds = %60, %58, %55
  %64 = tail call i32 @git_diff_basic_config(ptr noundef nonnull %0, ptr noundef %1, ptr noundef %2, ptr noundef null) #20
  br label %65

65:                                               ; preds = %48, %54, %51, %11, %21, %_.exit, %26, %16, %63, %41, %7
  %.0 = phi i32 [ %64, %63 ], [ 0, %41 ], [ -1, %7 ], [ 0, %16 ], [ 0, %26 ], [ 0, %_.exit ], [ 0, %21 ], [ 0, %11 ], [ 0, %51 ], [ 0, %54 ], [ %49, %48 ]
  ret i32 %.0
}